; Function Attrs: mustprogress nounwind uwtable
define hidden noundef ptr @_ZN14LibraryCallKit29load_klass_from_mirror_commonEP4NodebP10RegionNodeii(ptr noundef nonnull align 8 dereferenceable(108) %0, ptr noundef %1, i1 noundef zeroext %2, ptr noundef %3, i32 noundef %4, i32 noundef %5) local_unnamed_addr #0 align 2 {
  %7 = alloca ptr, align 8
  %8 = icmp eq ptr %3, null
  %spec.select = or i1 %8, %2
  %9 = sext i32 %5 to i64
  %10 = getelementptr inbounds i8, ptr %0, i64 32
  %11 = load ptr, ptr %10, align 8
  %12 = tail call noundef ptr @_ZN11PhaseValues7longconEl(ptr noundef nonnull align 8 dereferenceable(2400) %11, i64 noundef %9) #13
  %13 = tail call noundef ptr @_ZN8GraphKit14basic_plus_adrEP4NodeS1_S1_(ptr noundef nonnull align 8 dereferenceable(84) %0, ptr noundef %1, ptr noundef %1, ptr noundef %12) #13
  %14 = load ptr, ptr @_ZN16TypeInstKlassPtr14OBJECT_OR_NULLE, align 8
  %15 = load ptr, ptr %10, align 8
  %16 = getelementptr inbounds i8, ptr %0, i64 16
  %17 = load ptr, ptr %16, align 8
  %18 = tail call noundef ptr @_ZN7Compile16immutable_memoryEv(ptr noundef nonnull align 8 dereferenceable(2316) %17) #13
  %19 = load ptr, ptr @_ZN10TypeRawPtr6BOTTOME, align 8
  %20 = tail call noundef ptr @_ZN13LoadKlassNode4makeER8PhaseGVNP4NodeS3_S3_PK7TypePtrPK12TypeKlassPtr(ptr noundef nonnull align 8 dereferenceable(2400) %15, ptr noundef null, ptr noundef %18, ptr noundef %13, ptr noundef %19, ptr noundef %14) #13
  %21 = load ptr, ptr %15, align 8
  %22 = load ptr, ptr %21, align 8
  %23 = tail call noundef ptr %22(ptr noundef nonnull align 8 dereferenceable(2400) %15, ptr noundef %20) #13
  %24 = load ptr, ptr %16, align 8
  %25 = getelementptr inbounds i8, ptr %24, i64 744
  %26 = load ptr, ptr %25, align 8
  store ptr %26, ptr %7, align 8
  %27 = call noundef ptr @_ZN8GraphKit14null_check_oopEP4NodePS1_bbb(ptr noundef nonnull align 8 dereferenceable(84) %0, ptr noundef %23, ptr noundef nonnull %7, i1 noundef zeroext %spec.select, i1 noundef zeroext false, i1 noundef zeroext false) #13
  br i1 %8, label %_ZN4Node8init_reqEjPS_.exit, label %28

28:                                               ; preds = %6
  %29 = load ptr, ptr %7, align 8
  %30 = getelementptr inbounds i8, ptr %3, i64 8
  %31 = load ptr, ptr %30, align 8
  %32 = zext i32 %4 to i64
  %33 = getelementptr inbounds ptr, ptr %31, i64 %32
  store ptr %29, ptr %33, align 8
  %.not.i = icmp eq ptr %29, null
  br i1 %.not.i, label %_ZN4Node8init_reqEjPS_.exit, label %34

34:                                               ; preds = %28
  %35 = getelementptr inbounds i8, ptr %29, i64 16
  %36 = load ptr, ptr %35, align 8
  %37 = icmp eq ptr %36, null
  br i1 %37, label %_ZN4Node8init_reqEjPS_.exit, label %38

38:                                               ; preds = %34
  %39 = getelementptr inbounds i8, ptr %29, i64 32
  %40 = load i32, ptr %39, align 8
  %41 = getelementptr inbounds i8, ptr %29, i64 36
  %42 = load i32, ptr %41, align 4
  %43 = icmp eq i32 %40, %42
  br i1 %43, label %44, label %45

44:                                               ; preds = %38
  call void @_ZN4Node8out_growEj(ptr noundef nonnull align 8 dereferenceable(52) %29, i32 noundef %40) #13
  %.pre.i.i = load ptr, ptr %35, align 8
  %.pre2.i.i = load i32, ptr %39, align 8
  br label %45

45:                                               ; preds = %44, %38
  %46 = phi i32 [ %.pre2.i.i, %44 ], [ %40, %38 ]
  %47 = phi ptr [ %.pre.i.i, %44 ], [ %36, %38 ]
  %48 = add i32 %46, 1
  store i32 %48, ptr %39, align 8
  %49 = zext i32 %46 to i64
  %50 = getelementptr inbounds ptr, ptr %47, i64 %49
  store ptr %3, ptr %50, align 8
  br label %_ZN4Node8init_reqEjPS_.exit

_ZN4Node8init_reqEjPS_.exit:                      ; preds = %45, %34, %28, %6
  ret ptr %27
}